target datalayout = "e-m:e-p270:32:32-p271:32:32-p272:64:64-i64:64-i128:128-f80:128-n8:16:32:64-S128"
target triple = "x86_64-pc-linux-gnu"

%struct.ssl_st = type { i32, i16, i16, ptr, ptr, ptr, ptr, ptr, i32, i32, ptr, ptr, i32, i32, ptr, ptr, ptr, ptr, ptr, ptr, ptr, ptr, i32, i32, [32 x i8], ptr, ptr, ptr, ptr, ptr, ptr, ptr, i64, %struct.crypto_ex_data_st, ptr, i32, i32, i32, i32, i16, ptr, i32, i64, ptr, ptr, ptr, ptr, ptr, ptr, i32, i32, ptr, ptr, i8, i8, i32 }
%struct.crypto_ex_data_st = type { ptr }
%struct.ssl3_state_st = type { [8 x i8], [8 x i8], [32 x i8], [32 x i8], i8, i8, %struct.ssl3_buffer_st, %struct.ssl3_buffer_st, %struct.ssl3_record_st, i8, i32, i32, i32, i32, ptr, ptr, %struct.env_md_ctx_st, %struct.env_md_ctx_st, i8, i32, [2 x i8], i32, i8, i8, ptr, ptr, ptr, %struct.anon, [64 x i8], i8, [64 x i8], i8, i32, i32, ptr, i64, ptr, i64, i8, [64 x i8] }
%struct.ssl3_buffer_st = type { ptr, i16, i16, i16 }
%struct.ssl3_record_st = type { i8, i16, ptr }
%struct.env_md_ctx_st = type { ptr, ptr, ptr, ptr }
%struct.anon = type { [64 x i8], i32, [64 x i8], i32, i64, i32, ptr, i32, i32, %union.anon, %union.anon.0, i8, i32, ptr, ptr, i64, ptr, i8, i8, i8, i8, i32, i8, ptr, i64, i8, ptr, i8, i8, i8, %struct.ssl_ecdh_ctx_st, ptr, i16 }
%union.anon = type { i32 }
%union.anon.0 = type { i16 }
%struct.ssl_ecdh_ctx_st = type { ptr, ptr }
%struct.ssl_protocol_method_st = type { i8, ptr, ptr, ptr, ptr, ptr, ptr, ptr, ptr, ptr, ptr, ptr, i32, ptr, ptr }

@.str = private unnamed_addr constant [120 x i8] c"generated/home/dtcxzyw/WorkSpace/Projects/compilers/llvm-opt-benchmark/bench/libquic/libquic/boringssl/ssl/ssl_buffer.c\00", align 1

; Function Attrs: nounwind uwtable
define internal void @clear_buffer(ptr noundef %0) #0 {
  %2 = alloca ptr, align 8
  store ptr %0, ptr %2, align 8, !tbaa !59
  %3 = load ptr, ptr %2, align 8, !tbaa !59
  %4 = getelementptr inbounds nuw %struct.ssl3_buffer_st, ptr %3, i32 0, i32 0
  %5 = load ptr, ptr %4, align 8, !tbaa !61
  call void @free(ptr noundef %5) #7
  %6 = load ptr, ptr %2, align 8, !tbaa !59
  call void @llvm.memset.p0.i64(ptr align 8 %6, i8 0, i64 16, i1 false)
  ret void
}

; Function Attrs: nounwind uwtable
define internal void @consume_buffer(ptr noundef %0, i64 noundef %1) #0 {
  %3 = alloca ptr, align 8
  %4 = alloca i64, align 8
  store ptr %0, ptr %3, align 8, !tbaa !59
  store i64 %1, ptr %4, align 8, !tbaa !53
  %5 = load i64, ptr %4, align 8, !tbaa !53
  %6 = load ptr, ptr %3, align 8, !tbaa !59
  %7 = getelementptr inbounds nuw %struct.ssl3_buffer_st, ptr %6, i32 0, i32 2
  %8 = load i16, ptr %7, align 2, !tbaa !62
  %9 = zext i16 %8 to i64
  %10 = icmp ugt i64 %5, %9
  br i1 %10, label %11, label %12

11:                                               ; preds = %2
  call void @abort() #8
  unreachable

12:                                               ; preds = %2
  %13 = load i64, ptr %4, align 8, !tbaa !53
  %14 = trunc i64 %13 to i16
  %15 = zext i16 %14 to i32
  %16 = load ptr, ptr %3, align 8, !tbaa !59
  %17 = getelementptr inbounds nuw %struct.ssl3_buffer_st, ptr %16, i32 0, i32 1
  %18 = load i16, ptr %17, align 8, !tbaa !63
  %19 = zext i16 %18 to i32
  %20 = add nsw i32 %19, %15
  %21 = trunc i32 %20 to i16
  store i16 %21, ptr %17, align 8, !tbaa !63
  %22 = load i64, ptr %4, align 8, !tbaa !53
  %23 = trunc i64 %22 to i16
  %24 = zext i16 %23 to i32
  %25 = load ptr, ptr %3, align 8, !tbaa !59
  %26 = getelementptr inbounds nuw %struct.ssl3_buffer_st, ptr %25, i32 0, i32 2
  %27 = load i16, ptr %26, align 2, !tbaa !62
  %28 = zext i16 %27 to i32
  %29 = sub nsw i32 %28, %24
  %30 = trunc i32 %29 to i16
  store i16 %30, ptr %26, align 2, !tbaa !62
  %31 = load i64, ptr %4, align 8, !tbaa !53
  %32 = trunc i64 %31 to i16
  %33 = zext i16 %32 to i32
  %34 = load ptr, ptr %3, align 8, !tbaa !59
  %35 = getelementptr inbounds nuw %struct.ssl3_buffer_st, ptr %34, i32 0, i32 3
  %36 = load i16, ptr %35, align 4, !tbaa !64
  %37 = zext i16 %36 to i32
  %38 = sub nsw i32 %37, %33
  %39 = trunc i32 %38 to i16
  store i16 %39, ptr %35, align 4, !tbaa !64
  ret void
}

; Function Attrs: nounwind uwtable
define hidden void @ssl_write_buffer_clear(ptr noundef %0) #0 {
  %2 = alloca ptr, align 8
  store ptr %0, ptr %2, align 8, !tbaa !6
  %3 = load ptr, ptr %2, align 8, !tbaa !6
  %4 = getelementptr inbounds nuw %struct.ssl_st, ptr %3, i32 0, i32 14
  %5 = load ptr, ptr %4, align 8, !tbaa !11
  %6 = getelementptr inbounds nuw %struct.ssl3_state_st, ptr %5, i32 0, i32 7
  call void @clear_buffer(ptr noundef %6)
  ret void
}

; Function Attrs: nounwind uwtable
define internal i32 @tls_write_buffer_flush(ptr noundef %0) #0 {
  %2 = alloca i32, align 4
  %3 = alloca ptr, align 8
  %4 = alloca ptr, align 8
  %5 = alloca i32, align 4
  %6 = alloca i32, align 4
  store ptr %0, ptr %3, align 8, !tbaa !6
  call void @llvm.lifetime.start.p0(i64 8, ptr %4) #7
  %7 = load ptr, ptr %3, align 8, !tbaa !6
  %8 = getelementptr inbounds nuw %struct.ssl_st, ptr %7, i32 0, i32 14
  %9 = load ptr, ptr %8, align 8, !tbaa !11
  %10 = getelementptr inbounds nuw %struct.ssl3_state_st, ptr %9, i32 0, i32 7
  store ptr %10, ptr %4, align 8, !tbaa !59
  br label %11

11:                                               ; preds = %47, %1
  %12 = load ptr, ptr %4, align 8, !tbaa !59
  %13 = getelementptr inbounds nuw %struct.ssl3_buffer_st, ptr %12, i32 0, i32 2
  %14 = load i16, ptr %13, align 2, !tbaa !62
  %15 = zext i16 %14 to i32
  %16 = icmp sgt i32 %15, 0
  br i1 %16, label %17, label %48

17:                                               ; preds = %11
  call void @llvm.lifetime.start.p0(i64 4, ptr %5) #7
  %18 = load ptr, ptr %3, align 8, !tbaa !6
  %19 = getelementptr inbounds nuw %struct.ssl_st, ptr %18, i32 0, i32 5
  %20 = load ptr, ptr %19, align 8, !tbaa !73
  %21 = load ptr, ptr %4, align 8, !tbaa !59
  %22 = getelementptr inbounds nuw %struct.ssl3_buffer_st, ptr %21, i32 0, i32 0
  %23 = load ptr, ptr %22, align 8, !tbaa !61
  %24 = load ptr, ptr %4, align 8, !tbaa !59
  %25 = getelementptr inbounds nuw %struct.ssl3_buffer_st, ptr %24, i32 0, i32 1
  %26 = load i16, ptr %25, align 8, !tbaa !63
  %27 = zext i16 %26 to i32
  %28 = sext i32 %27 to i64
  %29 = getelementptr inbounds i8, ptr %23, i64 %28
  %30 = load ptr, ptr %4, align 8, !tbaa !59
  %31 = getelementptr inbounds nuw %struct.ssl3_buffer_st, ptr %30, i32 0, i32 2
  %32 = load i16, ptr %31, align 2, !tbaa !62
  %33 = zext i16 %32 to i32
  %34 = call i32 @BIO_write(ptr noundef %20, ptr noundef %29, i32 noundef %33)
  store i32 %34, ptr %5, align 4, !tbaa !58
  %35 = load i32, ptr %5, align 4, !tbaa !58
  %36 = icmp sle i32 %35, 0
  br i1 %36, label %37, label %41

37:                                               ; preds = %17
  %38 = load ptr, ptr %3, align 8, !tbaa !6
  %39 = getelementptr inbounds nuw %struct.ssl_st, ptr %38, i32 0, i32 22
  store i32 2, ptr %39, align 8, !tbaa !65
  %40 = load i32, ptr %5, align 4, !tbaa !58
  store i32 %40, ptr %2, align 4
  store i32 1, ptr %6, align 4
  br label %45

41:                                               ; preds = %17
  %42 = load ptr, ptr %4, align 8, !tbaa !59
  %43 = load i32, ptr %5, align 4, !tbaa !58
  %44 = sext i32 %43 to i64
  call void @consume_buffer(ptr noundef %42, i64 noundef %44)
  store i32 0, ptr %6, align 4
  br label %45

45:                                               ; preds = %41, %37
  call void @llvm.lifetime.end.p0(i64 4, ptr %5) #7
  %46 = load i32, ptr %6, align 4
  switch i32 %46, label %50 [
    i32 0, label %47
  ]

47:                                               ; preds = %45
  br label %11, !llvm.loop !74

48:                                               ; preds = %11
  %49 = load ptr, ptr %3, align 8, !tbaa !6
  call void @ssl_write_buffer_clear(ptr noundef %49)
  store i32 1, ptr %2, align 4
  store i32 1, ptr %6, align 4
  br label %50

50:                                               ; preds = %48, %45
  call void @llvm.lifetime.end.p0(i64 8, ptr %4) #7
  %51 = load i32, ptr %2, align 4
  ret i32 %51
}

; Function Attrs: nounwind uwtable
define internal i32 @dtls_write_buffer_flush(ptr noundef %0) #0 {
  %2 = alloca i32, align 4
  %3 = alloca ptr, align 8
  %4 = alloca ptr, align 8
  %5 = alloca i32, align 4
  %6 = alloca i32, align 4
  store ptr %0, ptr %3, align 8, !tbaa !6
  call void @llvm.lifetime.start.p0(i64 8, ptr %4) #7
  %7 = load ptr, ptr %3, align 8, !tbaa !6
  %8 = getelementptr inbounds nuw %struct.ssl_st, ptr %7, i32 0, i32 14
  %9 = load ptr, ptr %8, align 8, !tbaa !11
  %10 = getelementptr inbounds nuw %struct.ssl3_state_st, ptr %9, i32 0, i32 7
  store ptr %10, ptr %4, align 8, !tbaa !59
  %11 = load ptr, ptr %4, align 8, !tbaa !59
  %12 = getelementptr inbounds nuw %struct.ssl3_buffer_st, ptr %11, i32 0, i32 2
  %13 = load i16, ptr %12, align 2, !tbaa !62
  %14 = zext i16 %13 to i32
  %15 = icmp eq i32 %14, 0
  br i1 %15, label %16, label %17

16:                                               ; preds = %1
  store i32 1, ptr %2, align 4
  store i32 1, ptr %5, align 4
  br label %45

17:                                               ; preds = %1
  call void @llvm.lifetime.start.p0(i64 4, ptr %6) #7
  %18 = load ptr, ptr %3, align 8, !tbaa !6
  %19 = getelementptr inbounds nuw %struct.ssl_st, ptr %18, i32 0, i32 5
  %20 = load ptr, ptr %19, align 8, !tbaa !73
  %21 = load ptr, ptr %4, align 8, !tbaa !59
  %22 = getelementptr inbounds nuw %struct.ssl3_buffer_st, ptr %21, i32 0, i32 0
  %23 = load ptr, ptr %22, align 8, !tbaa !61
  %24 = load ptr, ptr %4, align 8, !tbaa !59
  %25 = getelementptr inbounds nuw %struct.ssl3_buffer_st, ptr %24, i32 0, i32 1
  %26 = load i16, ptr %25, align 8, !tbaa !63
  %27 = zext i16 %26 to i32
  %28 = sext i32 %27 to i64
  %29 = getelementptr inbounds i8, ptr %23, i64 %28
  %30 = load ptr, ptr %4, align 8, !tbaa !59
  %31 = getelementptr inbounds nuw %struct.ssl3_buffer_st, ptr %30, i32 0, i32 2
  %32 = load i16, ptr %31, align 2, !tbaa !62
  %33 = zext i16 %32 to i32
  %34 = call i32 @BIO_write(ptr noundef %20, ptr noundef %29, i32 noundef %33)
  store i32 %34, ptr %6, align 4, !tbaa !58
  %35 = load i32, ptr %6, align 4, !tbaa !58
  %36 = icmp sle i32 %35, 0
  br i1 %36, label %37, label %42

37:                                               ; preds = %17
  %38 = load ptr, ptr %3, align 8, !tbaa !6
  %39 = getelementptr inbounds nuw %struct.ssl_st, ptr %38, i32 0, i32 22
  store i32 2, ptr %39, align 8, !tbaa !65
  %40 = load ptr, ptr %3, align 8, !tbaa !6
  call void @ssl_write_buffer_clear(ptr noundef %40)
  %41 = load i32, ptr %6, align 4, !tbaa !58
  store i32 %41, ptr %2, align 4
  store i32 1, ptr %5, align 4
  br label %44

42:                                               ; preds = %17
  %43 = load ptr, ptr %3, align 8, !tbaa !6
  call void @ssl_write_buffer_clear(ptr noundef %43)
  store i32 1, ptr %2, align 4
  store i32 1, ptr %5, align 4
  br label %44

44:                                               ; preds = %42, %37
  call void @llvm.lifetime.end.p0(i64 4, ptr %6) #7
  br label %45

45:                                               ; preds = %44, %16
  call void @llvm.lifetime.end.p0(i64 8, ptr %4) #7
  %46 = load i32, ptr %2, align 4
  ret i32 %46
}

; Function Attrs: nounwind uwtable
define hidden i32 @ssl_write_buffer_flush(ptr noundef %0) #0 {
  %2 = alloca i32, align 4
  %3 = alloca ptr, align 8
  store ptr %0, ptr %3, align 8, !tbaa !6
  %4 = load ptr, ptr %3, align 8, !tbaa !6
  %5 = getelementptr inbounds nuw %struct.ssl_st, ptr %4, i32 0, i32 5
  %6 = load ptr, ptr %5, align 8, !tbaa !73
  %7 = icmp eq ptr %6, null
  br i1 %7, label %8, label %9

8:                                                ; preds = %1
  call void @ERR_put_error(i32 noundef 16, i32 noundef 0, i32 noundef 119, ptr noundef @.str, i32 noundef 301)
  store i32 -1, ptr %2, align 4
  br label %22

9:                                                ; preds = %1
  call void @ERR_clear_system_error()
  %10 = load ptr, ptr %3, align 8, !tbaa !6
  %11 = getelementptr inbounds nuw %struct.ssl_st, ptr %10, i32 0, i32 3
  %12 = load ptr, ptr %11, align 8, !tbaa !55
  %13 = getelementptr inbounds nuw %struct.ssl_protocol_method_st, ptr %12, i32 0, i32 0
  %14 = load i8, ptr %13, align 8, !tbaa !56
  %15 = icmp ne i8 %14, 0
  br i1 %15, label %16, label %19

16:                                               ; preds = %9
  %17 = load ptr, ptr %3, align 8, !tbaa !6
  %18 = call i32 @dtls_write_buffer_flush(ptr noundef %17)
  store i32 %18, ptr %2, align 4
  br label %22

19:                                               ; preds = %9
  %20 = load ptr, ptr %3, align 8, !tbaa !6
  %21 = call i32 @tls_write_buffer_flush(ptr noundef %20)
  store i32 %21, ptr %2, align 4
  br label %22

22:                                               ; preds = %19, %16, %8
  %23 = load i32, ptr %2, align 4
  ret i32 %23
}