; Function Attrs: nounwind uwtable
define hidden range(i32 -2147483648, 2) i32 @ssl_write_buffer_flush(ptr noundef captures(none) %0) local_unnamed_addr #1 {
  %2 = getelementptr inbounds nuw i8, ptr %0, i64 24
  %3 = load ptr, ptr %2, align 8, !tbaa !65
  %4 = icmp eq ptr %3, null
  br i1 %4, label %5, label %6

5:                                                ; preds = %1
  tail call void @ERR_put_error(i32 noundef 16, i32 noundef 0, i32 noundef 119, ptr noundef nonnull @.str, i32 noundef 301) #9
  br label %dtls_write_buffer_flush.exit

6:                                                ; preds = %1
  tail call void @ERR_clear_system_error() #9
  %7 = getelementptr inbounds nuw i8, ptr %0, i64 8
  %8 = load ptr, ptr %7, align 8, !tbaa !52
  %9 = load i8, ptr %8, align 8, !tbaa !53
  %.not = icmp eq i8 %9, 0
  %10 = getelementptr inbounds nuw i8, ptr %0, i64 80
  %11 = load ptr, ptr %10, align 8, !tbaa !6
  br i1 %.not, label %32, label %12

12:                                               ; preds = %6
  %13 = getelementptr inbounds nuw i8, ptr %11, i64 114
  %14 = load i16, ptr %13, align 2, !tbaa !56
  %15 = icmp eq i16 %14, 0
  br i1 %15, label %dtls_write_buffer_flush.exit, label %16

16:                                               ; preds = %12
  %17 = zext i16 %14 to i32
  %18 = getelementptr inbounds nuw i8, ptr %11, i64 104
  %19 = load ptr, ptr %2, align 8, !tbaa !65
  %20 = load ptr, ptr %18, align 8, !tbaa !51
  %21 = getelementptr inbounds nuw i8, ptr %11, i64 112
  %22 = load i16, ptr %21, align 8, !tbaa !55
  %23 = zext i16 %22 to i64
  %24 = getelementptr inbounds nuw i8, ptr %20, i64 %23
  %25 = tail call i32 @BIO_write(ptr noundef %19, ptr noundef %24, i32 noundef %17) #9
  %26 = icmp slt i32 %25, 1
  br i1 %26, label %27, label %.sink.split.i

27:                                               ; preds = %16
  %28 = getelementptr inbounds nuw i8, ptr %0, i64 144
  store i32 2, ptr %28, align 8, !tbaa !59
  br label %.sink.split.i

.sink.split.i:                                    ; preds = %27, %16
  %.0.ph.i = phi i32 [ %25, %27 ], [ 1, %16 ]
  %29 = load ptr, ptr %10, align 8, !tbaa !6
  %30 = getelementptr inbounds nuw i8, ptr %29, i64 104
  %31 = load ptr, ptr %30, align 8, !tbaa !51
  tail call void @free(ptr noundef %31) #9
  tail call void @llvm.memset.p0.i64(ptr noundef nonnull align 8 dereferenceable(16) %30, i8 0, i64 16, i1 false)
  br label %dtls_write_buffer_flush.exit

32:                                               ; preds = %6
  %33 = getelementptr inbounds nuw i8, ptr %11, i64 104
  %34 = getelementptr inbounds nuw i8, ptr %11, i64 114
  %35 = load i16, ptr %34, align 2, !tbaa !56
  %.not19.i = icmp eq i16 %35, 0
  br i1 %.not19.i, label %._crit_edge.i, label %.lr.ph.i

.lr.ph.i:                                         ; preds = %32
  %36 = getelementptr inbounds nuw i8, ptr %11, i64 112
  %37 = getelementptr inbounds nuw i8, ptr %11, i64 116
  %.pre.i = load i16, ptr %36, align 8, !tbaa !55
  br label %38

38:                                               ; preds = %54, %.lr.ph.i
  %39 = phi i16 [ %.pre.i, %.lr.ph.i ], [ %57, %54 ]
  %40 = phi i16 [ %35, %.lr.ph.i ], [ %58, %54 ]
  %41 = zext i16 %40 to i32
  %42 = load ptr, ptr %2, align 8, !tbaa !65
  %43 = load ptr, ptr %33, align 8, !tbaa !51
  %44 = zext i16 %39 to i64
  %45 = getelementptr inbounds nuw i8, ptr %43, i64 %44
  %46 = tail call i32 @BIO_write(ptr noundef %42, ptr noundef %45, i32 noundef %41) #9
  %47 = icmp sgt i32 %46, 0
  br i1 %47, label %49, label %.thread.i

.thread.i:                                        ; preds = %38
  %48 = getelementptr inbounds nuw i8, ptr %0, i64 144
  store i32 2, ptr %48, align 8, !tbaa !59
  br label %dtls_write_buffer_flush.exit

49:                                               ; preds = %38
  %50 = load i16, ptr %34, align 2, !tbaa !56
  %51 = zext i16 %50 to i32
  %52 = icmp samesign ugt i32 %46, %51
  br i1 %52, label %53, label %54

53:                                               ; preds = %49
  tail call void @abort() #11
  unreachable

54:                                               ; preds = %49
  %55 = trunc i32 %46 to i16
  %56 = load i16, ptr %36, align 8, !tbaa !55
  %57 = add i16 %56, %55
  store i16 %57, ptr %36, align 8, !tbaa !55
  %58 = sub i16 %50, %55
  store i16 %58, ptr %34, align 2, !tbaa !56
  %59 = load i16, ptr %37, align 4, !tbaa !57
  %60 = sub i16 %59, %55
  store i16 %60, ptr %37, align 4, !tbaa !57
  %.not.i = icmp eq i16 %58, 0
  br i1 %.not.i, label %._crit_edge.loopexit.i, label %38, !llvm.loop !66

._crit_edge.loopexit.i:                           ; preds = %54
  %.pre22.i = load ptr, ptr %10, align 8, !tbaa !6
  br label %._crit_edge.i

._crit_edge.i:                                    ; preds = %._crit_edge.loopexit.i, %32
  %61 = phi ptr [ %.pre22.i, %._crit_edge.loopexit.i ], [ %11, %32 ]
  %62 = getelementptr inbounds nuw i8, ptr %61, i64 104
  %63 = load ptr, ptr %62, align 8, !tbaa !51
  tail call void @free(ptr noundef %63) #9
  tail call void @llvm.memset.p0.i64(ptr noundef nonnull align 8 dereferenceable(16) %62, i8 0, i64 16, i1 false)
  br label %dtls_write_buffer_flush.exit

dtls_write_buffer_flush.exit:                     ; preds = %._crit_edge.i, %.thread.i, %.sink.split.i, %12, %5
  %.0 = phi i32 [ -1, %5 ], [ 1, %12 ], [ %.0.ph.i, %.sink.split.i ], [ 1, %._crit_edge.i ], [ %46, %.thread.i ]
  ret i32 %.0
}